ctorch._utils
_rebuild_tensor
p0
(ctorch
FloatStorage
p1
((lp2
F0.09298699349164963
aF0.01889849454164505
aF-0.18062949180603027
aF-0.03401562198996544
aF-0.1372680515050888
aF-0.20000000298023224
aF-0.1947997659444809
aF0.08471531420946121
aF-0.10979060083627701
aF0.13801026344299316
aF0.06757105886936188
aF-0.039782166481018066
aF0.11799097806215286
aF0.11419122666120529
aF0.08940470218658447
aF-0.10828288644552231
aF0.1947997659444809
aF0.01494508609175682
aF-0.020029475912451744
aF0.1947997659444809
aF0.20000000298023224
aF0.19135940074920654
aF0.18627068400382996
aF0.18627068400382996
aF0.20000000298023224
aF-0.0031405980698764324
aF-0.14873822033405304
aF-0.14024338126182556
aF0.09299730509519577
aF0.06807581335306168
aF-0.18062949180603027
aF-0.13386087119579315
aF0.041097551584243774
aF0.1155153140425682
aF-0.17894843220710754
aF-0.1947997659444809
aF-0.20000000298023224
aF-0.15306654572486877
aF-0.13606765866279602
aF0.19102996587753296
aF-0.0664493516087532
aF0.1038302555680275
aF0.16777394711971283
aF-0.08269833773374557
aF-0.13108505308628082
aF-0.1727723628282547
aF0.018405839800834656
aF-0.0998796746134758
aF-0.20000000298023224
aF0.1947997659444809
aF0.1947997659444809
aF0.19135940074920654
aF0.1630188524723053
aF0.19020728766918182
aF0.19020728766918182
aF0.05167209729552269
aF0.075286366045475
aF-0.16297465562820435
aF-0.18182693421840668
aF0.12414960563182831
aF0.13760970532894135
aF-0.07936663180589676
aF-0.17780788242816925
aF-0.005192453507333994
aF0.05674530193209648
aF-0.12485526502132416
aF-0.11660974472761154
aF-0.20000000298023224
aF-0.11649538576602936
aF-0.05150638148188591
aF-0.20000000298023224
aF0.07997959852218628
aF0.1501707136631012
aF0.18062949180603027
aF-0.09319175034761429
aF-0.162946417927742
aF0.15942730009555817
aF-0.01926393434405327
aF0.11732465773820877
aF-0.14955095946788788
aF-0.12178974598646164
aF-0.18062949180603027
aF-0.17611168324947357
aF-0.1440093219280243
aF-0.1611803025007248
aF-0.18746711313724518
aF-0.18062949180603027
aF-0.18062949180603027
aF-0.1947997659444809
aF0.052394624799489975
aF-0.1947997659444809
aF-0.05142998322844505
aF-0.1947997659444809
aF-0.16491174697875977
aF0.056711383163928986
aF-0.19500316679477692
aF-0.16493242979049683
aF-0.20000000298023224
aF-0.20000000298023224
aF-0.20000000298023224
aF-0.17578589916229248
aF0.07302472740411758
aF-0.040312815457582474
aF0.08950652182102203
aF0.04826490581035614
aF-0.11280487477779388
aF-0.09319175034761429
aF-0.019946616142988205
aF0.1947997659444809
aF0.1733468919992447
aF-0.02337750419974327
aF-0.1947997659444809
aF-0.14749032258987427
aF0.025302927941083908
aF-0.10341810435056686
aF-0.10858852416276932
aF-0.1611803025007248
aF0.02193734422326088
aF0.1947997659444809
aF-0.20000000298023224
aF-0.06066802516579628
aF0.036846596747636795
aF-0.1947997659444809
aF-0.09605110436677933
aF-0.19784501194953918
aF-0.058531466871500015
aF0.05413157120347023
aF0.1947997659444809
aF-0.13491232693195343
aF-0.1630188524723053
aF-0.1374122053384781
aF0.058998916298151016
aF-0.10730577260255814
aF0.06515873223543167
aF0.08808758109807968
aF-0.07633645832538605
aF-0.05145822837948799
aF-0.1947997659444809
aF-0.036241356283426285
aF0.15604472160339355
aF0.0425318144261837
aF-0.07917878776788712
aF0.07636698335409164
aF0.15681998431682587
aF0.1547674685716629
aF-0.009149761870503426
aF-0.08504638075828552
aF-0.17922161519527435
aF0.1129511147737503
aF0.1826399862766266
aF0.1947997659444809
aF-0.14133378863334656
aF0.17980681359767914
aF0.13424979150295258
aF-0.1733468919992447
aF0.08372945338487625
aF0.11317021399736404
aF-0.18062949180603027
aF-0.16857610642910004
aF-0.19102996587753296
aF-0.18062949180603027
aF-0.18062949180603027
aF-0.18062949180603027
aF-0.15025357902050018
aF-0.1458110362291336
aF-0.1164335086941719
aF-0.14337925612926483
aF-0.1947997659444809
aF-0.140665665268898
aF-0.13506752252578735
aF0.1947997659444809
aF0.1014229878783226
aF-0.09129028767347336
aF-0.15459690988063812
aF-0.13413706421852112
aF0.1682242751121521
aF0.16140392422676086
aF0.018864741548895836
aF0.1206917092204094
aF0.15854127705097198
aF0.16952703893184662
aF0.14791935682296753
aF-0.10583648830652237
aF-0.18622295558452606
aF-0.20000000298023224
aF0.1454746574163437
aF-0.04931036755442619
aF-0.10471392422914505
aF-0.20000000298023224
aF-0.20000000298023224
aF-0.17512160539627075
aF-0.1947997659444809
aF-0.06329360604286194
aF-0.18342944979667664
aF-0.13147415220737457
aF-0.15617817640304565
aF-0.10240346938371658
aF0.13674914836883545
aF-0.16007517278194427
aF-0.1947997659444809
aF0.039482232183218
aF0.017630502581596375
aF-0.20000000298023224
aF-0.20000000298023224
aF-0.20000000298023224
aF0.15462887287139893
aF-0.10492946952581406
aF-0.08821775764226913
aF-0.059784647077322006
aF0.07181483507156372
aF0.15883047878742218
aF0.1671784371137619
aF0.18062949180603027
aF0.1947997659444809
aF0.1947997659444809
aF-0.08275894820690155
aF0.19102996587753296
aF0.13268132507801056
aF0.12343313544988632
aF-0.10418795794248581
aF0.1826399862766266
aF0.1308017522096634
aF0.16751722991466522
aF-0.1947997659444809
aF-0.057313818484544754
aF-0.18095041811466217
aF-0.12328246980905533
aF-0.10135995596647263
aF0.09475014358758926
aF-0.19945846498012543
aF-0.1908857226371765
aF-0.11980024725198746
aF0.1947997659444809
aF-0.09808702766895294
aF-0.050038374960422516
aF0.1255301833152771
aF0.18062949180603027
aF-0.10072865337133408
aF-0.14044174551963806
aF-0.14044174551963806
aF0.1630188524723053
aF0.1671784371137619
aF0.19135940074920654
aF0.1947997659444809
aF0.13217997550964355
aF0.1586863398551941
aF0.13119500875473022
aF0.10625844448804855
aF0.05095425620675087
aF-0.08610309660434723
aF0.04637428745627403
aF0.20000000298023224
aF0.19304046034812927
aF0.19102996587753296
aF0.19106192886829376
aF-0.1225336492061615
aF-0.14641951024532318
aF-0.17894843220710754
aF0.1630188524723053
aF0.1630188524723053
aF-0.03935176879167557
aF-0.09752055257558823
aF-0.08572278171777725
aF0.20000000298023224
aF0.1630188524723053
aF-0.15046563744544983
aF0.15419964492321014
aF0.1650293469429016
aF-0.042810577899217606
aF0.14547434449195862
aF0.16393205523490906
aF0.19102996587753296
aF0.19300849735736847
aF0.1826399862766266
aF0.1947997659444809
aF0.1947997659444809
aF0.18066145479679108
aF0.1630188524723053
aF0.06219884380698204
aF-0.12843741476535797
aF-0.01036592572927475
aF-0.049315232783555984
aF-0.04687008634209633
aF-0.10392598062753677
aF-0.1630188524723053
aF-0.1453026682138443
aF-0.051485273987054825
aF0.16548721492290497
aF-0.13667188584804535
aF0.16847285628318787
aF-0.007044418249279261
aF-0.13389886915683746
aF0.0455782525241375
aF-0.07553730905056
aF0.19135940074920654
aF0.13981033861637115
aF-0.1947997659444809
aF0.15883047878742218
aF0.20000000298023224
aF-0.05177554860711098
aF-0.08204849809408188
aF0.10356680303812027
aF0.19304046034812927
aF0.19304046034812927
aF0.0823567733168602
aF0.16221149265766144
aF0.1826399862766266
aF-0.0863468199968338
aF0.18062949180603027
aF0.20000000298023224
aF-0.1868937611579895
aF-0.07599206268787384
aF-0.05075148865580559
aF-0.10336341708898544
aF-0.14995847642421722
aF0.18062949180603027
aF0.18022073805332184
aF0.12419848889112473
aF0.11320134252309799
aF0.1755417436361313
aF0.20000000298023224
aF0.1947997659444809
aF0.06572398543357849
aF-0.20000000298023224
aF0.10439366847276688
aF-0.002867122646421194
aF0.18066145479679108
aF0.18062949180603027
aF0.15549618005752563
aF0.19102996587753296
aF0.18651215732097626
aF-0.08302582800388336
aF0.056985270231962204
aF0.1947997659444809
aF-0.08536791056394577
aF0.1451733410358429
aF-0.13883788883686066
aF0.07213068753480911
aF0.19102996587753296
aF-0.12920165061950684
aF0.18260802328586578
aF0.1947997659444809
aF-0.04252152517437935
aF0.09781656414270401
aF0.18746711313724518
aF0.05871124193072319
aF-0.12208346277475357
aF0.18095892667770386
aF0.1394311636686325
aF0.09748286753892899
aF0.1413593590259552
aF-0.14714962244033813
aF0.1630188524723053
aF-0.16319537162780762
aF-0.1947997659444809
aF-0.19304046034812927
aF-0.18062949180603027
aF-0.20000000298023224
aF-0.15382662415504456
aF0.15462887287139893
aF-0.20000000298023224
aF0.05246160179376602
aF0.20000000298023224
aF0.03880216181278229
aF-0.1630188524723053
aF0.13030950725078583
aF-0.0027796891517937183
aF0.1671784371137619
aF-0.1630188524723053
aF0.20000000298023224
aF0.19102996587753296
aF0.08839602768421173
aF0.19102996587753296
aF-0.01978128030896187
aF-0.19102996587753296
aF0.14703375101089478
aF0.10972162336111069
aF-0.19135940074920654
aF-0.030853889882564545
aF-0.16238732635974884
aF-0.01003943383693695
aF-0.20000000298023224
aF-0.20000000298023224
aF-0.10146833211183548
aF0.19343577325344086
aF-0.1947997659444809
aF0.16761602461338043
aF0.06793691217899323
aF-0.18062949180603027
aF-0.19192251563072205
aF0.1526183784008026
aF-0.1209755539894104
aF-0.19102996587753296
aF0.085347019135952
aF0.20000000298023224
aF0.048888836055994034
aF-0.1630188524723053
aF0.20000000298023224
aF0.07120192795991898
aF0.1947997659444809
aF-0.13900770246982574
aF0.06274659931659698
aF0.20000000298023224
aF-0.15355655550956726
aF0.20000000298023224
aF-0.0970560684800148
aF0.11193343997001648
aF0.20000000298023224
aF0.09397339820861816
aF-0.0644499883055687
aF0.06267071515321732
aF0.18062949180603027
aF-0.08105145394802094
aF-0.18977120518684387
aF-0.005349109414964914
aF0.0767679363489151
aF-0.0956527590751648
aF-0.13843972980976105
aF-0.051208507269620895
aF-0.20000000298023224
aF-0.18688072264194489
aF-0.09626740962266922
aF0.06839748471975327
aF0.04436871036887169
aF-0.167960062623024
aF0.13853870332241058
aF0.15143969655036926
aF-0.1947997659444809
aF-0.1789391040802002
aF0.18654412031173706
aF0.1826399862766266
aF0.1947997659444809
aF0.08427440375089645
aF0.0663568452000618
aF0.20000000298023224
aF-0.06621885299682617
aF0.14966438710689545
aF-0.14989764988422394
aF0.19102996587753296
aF-0.14265473186969757
aF-0.04626285657286644
aF-0.022876597940921783
aF-0.17852389812469482
aF-0.19102996587753296
aF-0.17703558504581451
aF-0.1671784371137619
aF-0.19135940074920654
aF-0.059595365077257156
aF-0.1947997659444809
aF-0.1947997659444809
aF-0.1947997659444809
aF-0.20000000298023224
aF-0.053005900233983994
aF-0.0017828750424087048
aF0.1630188524723053
aF0.15416768193244934
aF0.0723700299859047
aF0.1613699048757553
aF0.06595613062381744
aF-0.20000000298023224
aF-0.20000000298023224
aF0.19102996587753296
aF0.18062949180603027
aF0.18053439259529114
aF0.13032092154026031
aF0.0055126952938735485
aF0.1630188524723053
aF-0.1947997659444809
aF0.10671190172433853
aF0.08140053600072861
aF0.10870758444070816
aF0.11521907895803452
aF-0.032309841364622116
aF0.12203817069530487
aF-0.18062949180603027
aF-0.1630188524723053
aF-0.12854011356830597
aF-0.1225016862154007
aF-0.19102996587753296
aF-0.18062949180603027
aF-0.1947997659444809
aF-0.19135940074920654
aF-0.16951608657836914
aF-0.1826399862766266
aF0.20000000298023224
aF0.07833657413721085
aF0.10001835972070694
aF0.1947997659444809
aF0.021580643951892853
aF0.12688706815242767
aF0.03901493549346924
aF-0.19135940074920654
aF-0.18091394007205963
aF0.20000000298023224
aF0.1947997659444809
aF0.13144487142562866
aF0.11509675532579422
aF0.19102996587753296
aF0.1526183784008026
aF-0.20000000298023224
aF0.11451776325702667
aF-0.1947997659444809
aF-0.150160551071167
aF0.16186673939228058
aF-0.15234731137752533
aF0.06773797422647476
aF0.12088514864444733
aF-0.10934901237487793
aF-0.18316687643527985
aF-0.11210119724273682
aF-0.1630188524723053
aF-0.19102996587753296
aF0.08017527312040329
aF-0.11193180084228516
aF-0.1826399862766266
aF-0.13246525824069977
aF0.04479425773024559
aF-0.1947997659444809
aF0.01543186604976654
aF0.20000000298023224
aF-0.16186673939228058
aF0.1304008513689041
aF0.04514983668923378
aF-0.20000000298023224
aF0.18095892667770386
aF0.007186493370682001
aF0.1947997659444809
aF0.11264065653085709
aF-0.18062949180603027
aF0.19102996587753296
aF-0.06845352053642273
aF-0.1761772781610489
aF-0.06867063045501709
aF-0.09552981704473495
aF-0.15270371735095978
aF0.06022899970412254
aF0.08774767071008682
aF0.06507238000631332
aF0.1630188524723053
aF-0.18095892667770386
aF-0.1947997659444809
aF-0.1811312437057495
aF-0.1765509843826294
aF-0.18622295558452606
aF0.14089442789554596
aF-0.20000000298023224
aF-0.20000000298023224
aF0.11861030012369156
aF-0.12490834295749664
aF-0.13410019874572754
aF0.12596960365772247
aF0.20000000298023224
aF-0.059156712144613266
aF0.19102996587753296
aF0.19135940074920654
aF0.17627455294132233
aF0.1504877507686615
aF0.017476756125688553
aF0.12139056622982025
aF0.1505364030599594
aF-0.1826399862766266
aF-0.1300891786813736
aF-0.1947997659444809
aF-0.15462036430835724
aF-0.20000000298023224
aF0.10627225041389465
aF-0.1702035814523697
aF0.10421361774206161
aF-0.011135892942547798
aF-0.08408680558204651
aF0.17587020993232727
aF-0.17898039519786835
aF-0.14573359489440918
aF-0.17465583980083466
aF-0.1784919649362564
aF-0.1770211011171341
aF-0.20000000298023224
aF-0.20000000298023224
aF-0.1950015127658844
aF-0.06377485394477844
aF-0.11397381871938705
aF-0.15129490196704865
aF0.1730869859457016
aF0.16455383598804474
aF-0.1947997659444809
aF0.1062740758061409
aF0.14184534549713135
aF-0.05290268734097481
aF-0.1048438772559166
aF-0.036647357046604156
aF0.12008944898843765
aF-0.05355826020240784
aF0.08142410963773727
aF0.19102996587753296
aF0.07101143151521683
aF0.18874500691890717
aF0.08148232847452164
aF-0.05004372075200081
aF-0.0006673582829535007
aF-0.02394535206258297
aF-0.18622295558452606
aF-0.20000000298023224
aF0.046992406249046326
aF-0.1630188524723053
aF-0.16601325571537018
aF0.09013564884662628
aF-0.20000000298023224
aF-0.16959385573863983
aF0.1414080411195755
aF0.023790951818227768
aF0.14647439122200012
aF0.1586751490831375
aF-0.20000000298023224
aF0.05683257058262825
aF0.12031302601099014
aF0.1027994379401207
aF-0.15376755595207214
aF0.0978018119931221
aF0.10816388577222824
aF0.05908884480595589
aF0.09892192482948303
aF0.050164803862571716
aF0.13883788883686066
aF-0.09033136814832687
aF0.031577836722135544
aF-0.019172804430127144
aF0.1826399862766266
aF0.1826399862766266
aF-0.1947997659444809
aF0.05451596900820732
aF0.1284029483795166
aF0.012147404253482819
aF-0.18062949180603027
aF-0.20000000298023224
aF0.08632250875234604
aF-0.19135940074920654
aF-0.20000000298023224
aF0.007998112589120865
aF-0.004696110729128122
aF-0.09368272125720978
aF0.19135940074920654
aF0.19135940074920654
aF0.06472526490688324
aF0.07784910500049591
aF-0.1630188524723053
aF0.08635929971933365
aF-0.1314030885696411
aF0.06960678845643997
aF0.04159202054142952
aF-0.104269839823246
aF0.1140352413058281
aF-0.05477872118353844
aF-0.04652607813477516
aF-0.18062949180603027
aF-0.1826399862766266
aF-0.18062949180603027
aF-0.1526183784008026
aF-0.12843741476535797
aF-0.07361193746328354
aF-0.13280726969242096
aF0.12277784198522568
aF0.20000000298023224
aF-0.17058660089969635
aF-0.1947997659444809
aF-0.18062949180603027
aF-0.07612975686788559
aF0.1630188524723053
aF-0.10986196249723434
aF-0.08059411495923996
aF0.1526183784008026
aF-0.10151364654302597
aF-0.07426368445158005
aF0.004371263552457094
aF-0.20000000298023224
aF-0.1459210067987442
aF-0.19102996587753296
aF-0.20000000298023224
aF0.18865634500980377
aF0.015565942972898483
aF0.1096334457397461
aF0.20000000298023224
aF0.030925221741199493
aF0.19304046034812927
aF0.20000000298023224
aF0.15088845789432526
aF0.09425213187932968
aF0.1947997659444809
aF0.1947997659444809
aF0.10297133773565292
aF-0.04307214543223381
aF-0.18062949180603027
aF0.033613961189985275
aF0.19135940074920654
aF-0.16228066384792328
aF-0.20000000298023224
aF-0.20000000298023224
aF-0.19170302152633667
aF0.1405196487903595
aF0.1630188524723053
aF-0.1650293469429016
aF-0.18189555406570435
aF0.17532654106616974
aF0.1604720950126648
aF-0.08191566914319992
aF-0.19786758720874786
aF-0.20000000298023224
aF-0.20000000298023224
aF-0.1609753966331482
aF0.18095892667770386
aF0.1826399862766266
aF0.005440475884824991
aF0.20000000298023224
aF0.19102996587753296
aF0.19102996587753296
aF0.19304046034812927
aF0.20000000298023224
aF0.19135940074920654
aF0.1650293469429016
aF0.18095892667770386
aF0.1947997659444809
aF0.12689587473869324
aF0.1947997659444809
aF0.18095892667770386
aF0.11184784024953842
aF0.19135940074920654
aF0.1080910786986351
aF0.054302435368299484
aF0.03209029883146286
aF-0.1714320182800293
aF0.17687948048114777
aF0.19135940074920654
aF-0.19304046034812927
aF-0.20000000298023224
aF0.012173987925052643
aF0.07754474133253098
aF0.1826399862766266
aF-0.17762157320976257
aF-0.0810689926147461
aF0.1341462880373001
aF0.15084221959114075
aF0.09989386051893234
aF0.13144487142562866
aF-0.10894674807786942
aF-0.13024193048477173
aF0.16646899282932281
aF-0.20000000298023224
aF-0.20000000298023224
aF-0.08943609893321991
aF0.10202852636575699
aF0.12846429646015167
aF0.1947997659444809
aF0.1671784371137619
aF0.1722840964794159
aF0.14329063892364502
aF-0.08457472175359726
aF-0.10650933533906937
aF0.07402092963457108
aF0.18062949180603027
aF0.14379529654979706
aF0.1947997659444809
aF-0.1485043168067932
aF0.1947997659444809
aF0.1947997659444809
aF-0.1630188524723053
aF-0.13469436764717102
aF0.15998823940753937
aF0.16369280219078064
aF0.1484300047159195
aF-0.1935173124074936
aF-0.20000000298023224
aF-0.040288712829351425
aF-0.05530032888054848
aF-0.18846139311790466
aF-0.18062949180603027
aF0.02759796753525734
aF0.12843741476535797
aF0.153976708650589
aF-0.07487821578979492
aF-0.09430553764104843
aF-0.19304046034812927
aF-0.20000000298023224
aF-0.20000000298023224
aF-0.1630188524723053
aF-0.14386624097824097
aF-0.15134023129940033
aF-0.17558157444000244
aF-0.20000000298023224
aF0.0661625787615776
aF0.1639070212841034
aF0.10236606746912003
aF0.13454954326152802
aF0.14435434341430664
aF-0.07830587774515152
aF0.1860419362783432
aF0.20000000298023224
aF0.0570189394056797
aF0.088067926466465
aF0.05724876746535301
aF0.014449294656515121
aF0.11314735561609268
aF-0.19102996587753296
aF-0.1947997659444809
aF-0.035647936165332794
aF-0.10464293509721756
aF-0.19135940074920654
aF0.033442702144384384
aF-0.06739971786737442
aF-0.18062949180603027
aF-0.04924717918038368
aF-0.13460586965084076
aF0.18296091258525848
aF-0.0851200744509697
aF-0.20000000298023224
aF-0.14129607379436493
aF-0.04857282713055611
aF-0.18062949180603027
aF-0.09404214471578598
aF0.05482609197497368
aF-0.00882316567003727
aF0.12726610898971558
aF0.08526044338941574
aF0.09965886920690536
aF0.18260802328586578
aF-0.04126611351966858
aF-0.036248788237571716
aF0.18062949180603027
aF0.17582248151302338
aF0.14370854198932648
aF0.17153753340244293
aF0.18095892667770386
aF-0.031585536897182465
aF0.14044174551963806
aF-0.1431976705789566
aF-0.18062949180603027
aF0.12726090848445892
aF0.1706407070159912
aF-0.14534738659858704
aF-0.15630295872688293
aF0.08607421070337296
aF-0.1675238162279129
aF-0.1671784371137619
aF-0.10961496084928513
aF-0.11350243538618088
aF-0.19102996587753296
aF-0.18062949180603027
aF-0.18062949180603027
aF0.16602447628974915
aF0.19020728766918182
aF0.16462379693984985
aF0.19135940074920654
aF0.1630508154630661
aF0.19135940074920654
aF0.12828639149665833
aF0.12943437695503235
aF-0.10378902405500412
aF-0.1947997659444809
aF-0.20000000298023224
aF-0.044706497341394424
aF-0.030682910233736038
aF0.1947997659444809
aF0.19135940074920654
aF-0.07824213057756424
aF-0.10017255693674088
aF-0.18062949180603027
aF-0.10275301337242126
aF-0.0925726443529129
aF0.1947997659444809
aF0.19135940074920654
aF-0.20000000298023224
aF0.03656354919075966
aF0.11896510422229767
aF0.1569409817457199
aF-0.05482625588774681
aF-0.17204909026622772
aF0.1947997659444809
aF0.16756004095077515
aF0.10027620941400528
aF-0.1526183784008026
aF-0.08976370841264725
aF-0.17605936527252197
aF-0.19135940074920654
aF0.1612563133239746
aF0.005575890187174082
aF-0.049192994832992554
aF0.09022825211286545
aF0.17976805567741394
aF0.15843544900417328
aF-0.1826399862766266
aF-0.08404798805713654
aF-0.012451538816094398
aF-0.10626409202814102
aF0.1725604385137558
aF0.20000000298023224
aF-0.10227062553167343
aF0.18062949180603027
aF0.09957236796617508
aF-0.18091103434562683
aF0.18062949180603027
aF0.11994940787553787
aF0.09198261052370071
aF-0.19102996587753296
aF0.1947997659444809
aF-0.06449554115533829
aF-0.04675765335559845
aF0.1630188524723053
aF0.08659297972917557
aF0.1671784371137619
aF0.19135940074920654
aF0.19135940074920654
aF0.19135940074920654
aF0.20000000298023224
aF-0.1505657285451889
aF-0.19135940074920654
aF-0.1630188524723053
aF-0.1630188524723053
aF0.11448177695274353
aF-0.006039509084075689
aF0.05659525841474533
aF0.050176139920949936
aF-0.006521556060761213
aF-0.030073177069425583
aF0.027619782835245132
aF-0.1671784371137619
aF0.1947997659444809
aF0.1947997659444809
aF0.1947997659444809
aF0.15187817811965942
aF0.04776167497038841
aF0.08358708769083023
aF0.12386906892061234
aF0.006905724760144949
aF-0.057096727192401886
aF-0.1630188524723053
aF-0.13020072877407074
aF-0.13020072877407074
aF-0.13883788883686066
aF-0.19135940074920654
aF-0.19135940074920654
aF-0.19135940074920654
aF-0.19135940074920654
aF-0.1630188524723053
aF-0.1630188524723053
aF-0.19135940074920654
aF-0.1630188524723053
aF-0.1630508154630661
aF-0.1630188524723053
aF-0.1630188524723053
aF-0.11107873171567917
aF-0.0002785134129226208
aF0.14549162983894348
aF-0.07306190580129623
aF-0.13478901982307434
aF0.15720674395561218
aF0.19135940074920654
aF-0.20000000298023224
aF0.16186673939228058
aF0.15854127705097198
aF-0.12559063732624054
aF0.16885191202163696
aF0.14437100291252136
aF0.1775050014257431
aF-0.028237234801054
aF0.07301879674196243
aF-0.16377758979797363
aF-0.15470285713672638
aF-0.12843741476535797
aF-0.12843741476535797
aF-0.13048993051052094
aF-0.18934890627861023
aF-0.19135940074920654
aF-0.19135940074920654
aF-0.19135940074920654
aF-0.19135940074920654
aF-0.1630188524723053
aF-0.1630508154630661
aF-0.1630188524723053
aF-0.1630188524723053
aF-0.0885017141699791
aF-0.1630188524723053
aF-0.18250823020935059
aF0.11641529202461243
aF-0.07054678350687027
aF-0.1020272821187973
aF-0.015813682228326797
aF0.08916311711072922
aF0.19135940074920654
aF-0.19786758720874786
aF-0.0555415116250515
aF0.15854127705097198
aF-0.10692416876554489
aF0.11498968303203583
aF0.17565540969371796
aF0.11675854027271271
aF0.14555507898330688
aF-0.1685350239276886
aF-0.18062949180603027
aF-0.1947997659444809
aF-0.08726517111063004
aF-0.14609460532665253
aF-0.1671784371137619
aF-0.19135940074920654
aF-0.19135940074920654
aF-0.19135940074920654
aF-0.19135940074920654
aF-0.19135940074920654
aF-0.1650293469429016
aF-0.19135940074920654
aF-0.1650293469429016
aF-0.1650293469429016
aF0.0551382414996624
aF0.014751490205526352
aF-0.06762906908988953
aF-0.09640509635210037
aF0.14705492556095123
aF0.0945674479007721
aF0.050649162381887436
aF0.045901745557785034
aF0.19135940074920654
aF-0.1947997659444809
aF-0.16164861619472504
aF-0.013882547616958618
aF-0.10692416876554489
aF-0.13397052884101868
aF0.15021851658821106
aF0.005870007444173098
aF0.0925280973315239
aF0.11478506028652191
aF0.08138108998537064
aF0.1947997659444809
aF0.16317228972911835
aF0.016156133264303207
aF0.1193244457244873
aF-0.15677163004875183
aF0.005225312430411577
aF-0.15084221959114075
aF-0.16156888008117676
aF-0.04752026125788689
aF-0.1451382339000702
aF-0.05311444401741028
aF0.13883788883686066
aF0.18062949180603027
aF-0.19084432721138
aF-0.18095892667770386
aF-0.1603141576051712
aF-0.1858023703098297
aF-0.1947997659444809
aF-0.036018066108226776
aF-0.15883047878742218
aF-0.06458259373903275
aF-0.006504702847450972
aF0.07323212921619415
aF0.03521203622221947
aF0.14044174551963806
aF0.19320641458034515
aF0.1947997659444809
aF0.09420818835496902
aF-0.05628760904073715
aF-0.047301340848207474
aF0.09796109050512314
aF0.12376643717288971
aF-0.10972162336111069
aF0.1373547911643982
aF0.07254194468259811
aF0.1308385729789734
aF0.1522214561700821
aF0.1947997659444809
aF-0.15883047878742218
aF-0.16716155409812927
aF0.0972590371966362
aF-0.16262294352054596
aF0.18022073805332184
aF0.059005673974752426
aF0.1262216866016388
aF0.14625050127506256
aF0.1947997659444809
aF0.1947997659444809
aF0.18062949180603027
aF0.19786758720874786
aF0.1947997659444809
aF-0.14262115955352783
aF-0.15549826622009277
aF-0.07938668876886368
aF0.1947997659444809
aF0.1947997659444809
aF-0.17311111092567444
aF0.042683519423007965
aF0.18684159219264984
aF0.1605115383863449
aF-0.0774526372551918
aF-0.00809093751013279
aF0.042659640312194824
aF0.1423088163137436
aF-0.09676181524991989
aF0.20000000298023224
aF0.07353952527046204
aF0.07255303859710693
aF0.13242334127426147
aF-0.20000000298023224
aF-0.12202285975217819
aF-0.1947997659444809
aF0.06369524449110031
aF0.003743159119039774
aF0.1563471555709839
aF0.19102996587753296
aF0.09556536376476288
aF0.08728629350662231
aF-0.027509506791830063
aF0.18622295558452606
aF-0.16037046909332275
aF-0.1650293469429016
aF-0.15480326116085052
aF-0.20000000298023224
aF-0.13799962401390076
aF0.1947997659444809
aF0.1947997659444809
aF0.1947997659444809
aF-0.15504594147205353
aF0.1947997659444809
aF0.18062949180603027
aF0.00899483636021614
aF0.053549934178590775
aF0.18095892667770386
aF0.12142229825258255
aF0.051757872104644775
aF-0.10599540919065475
aF0.20000000298023224
aF0.18262813985347748
aF0.08116218447685242
aF0.18022073805332184
aF-0.11601705104112625
aF-0.15604472160339355
aF0.025004185736179352
aF0.10532694309949875
aF0.14886553585529327
aF0.04343487694859505
aF-0.10336054116487503
aF0.03941422328352928
aF0.17937766015529633
aF0.10816832631826401
aF-0.1380026489496231
aF-0.1947997659444809
aF0.08016002923250198
aF0.16680999100208282
aF-0.12760674953460693
aF-0.10720702260732651
aF0.15171928703784943
aF-0.1778329759836197
aF0.1947997659444809
aF0.162946417927742
aF0.19745193421840668
aF0.18062949180603027
aF0.11463508009910583
aF0.1628393679857254
aF0.19402487576007843
aF0.1065232902765274
aF0.09649790078401566
aF0.14878594875335693
aF0.11169162392616272
aF0.19200508296489716
aF0.1311483085155487
aF0.06369524449110031
aF-0.1947997659444809
aF-0.19102996587753296
aF0.05411039665341377
aF0.03602307289838791
aF-0.16913197934627533
aF-0.14084838330745697
aF0.10355103760957718
aF0.06886128336191177
aF-0.10071568936109543
aF-0.04429921135306358
aF-0.04788690805435181
aF0.1502389907836914
aF0.16113705933094025
aF0.20000000298023224
aF-0.010719241574406624
aF0.13144487142562866
aF0.12384704500436783
aF0.14773717522621155
aF0.1947997659444809
aF0.20000000298023224
aF0.20000000298023224
aF0.1400238424539566
aF0.14337851107120514
aF0.09219282120466232
aF0.1650293469429016
aF0.1537524163722992
aF0.12573635578155518
aF0.18062949180603027
aF0.162946417927742
aF-0.04134967178106308
aF-0.1826399862766266
aF0.0530024953186512
aF-0.13141518831253052
aF0.11963082104921341
aF0.18022073805332184
aF-0.04747883230447769
aF0.14784100651741028
aF0.18062949180603027
aF0.18062949180603027
aF0.18062949180603027
aF-0.17065481841564178
aF0.08093256503343582
aF0.20000000298023224
aF0.14394354820251465
aF-0.15677796304225922
aF-0.11980024725198746
aF-0.19102996587753296
aF-0.1947997659444809
aF0.10163911432027817
aF0.20000000298023224
aF0.20000000298023224
aF0.19102996587753296
aF-0.19508101046085358
aF0.15601275861263275
aF0.10215909034013748
aF0.17894843220710754
aF0.11411169171333313
aF0.13044790923595428
aF0.12530361115932465
aF0.1947997659444809
aF0.14913508296012878
aF-0.16577351093292236
aF-0.20000000298023224
aF0.15605473518371582
aF0.17894843220710754
aF-0.20000000298023224
aF-0.20000000298023224
aF-0.1788185089826584
aF0.13405731320381165
aF0.12386969476938248
aF-0.08491812646389008
aF-0.17058058083057404
aF-0.1630188524723053
aF0.18095892667770386
aF-0.19135940074920654
aF-0.06810367852449417
aF0.015538893640041351
aF0.1947997659444809
aF-0.05166633054614067
aF0.10407818108797073
aF0.15976952016353607
aF-0.05272452160716057
aF-0.09661329537630081
aF-0.15921208262443542
aF0.024361880496144295
aF-0.1135367825627327
aF-0.1947997659444809
aF0.18096604943275452
aF-0.15311835706233978
aF0.0977223739027977
aF0.12408559769392014
aF0.17221252620220184
aF-0.20000000298023224
aF-0.20000000298023224
aF0.1411249339580536
aF0.1947997659444809
aF-0.14644892513751984
aF-0.20000000298023224
aF0.12558670341968536
aF0.1547674685716629
aF-0.15817464888095856
aF-0.13883788883686066
aF-0.1651679426431656
aF0.09442988783121109
aF0.1671784371137619
aF0.19135940074920654
aF-0.19135940074920654
aF-0.19135940074920654
aF0.11934622377157211
aF0.11256951093673706
aF0.10580576211214066
aF0.12004386633634567
aF0.15394572913646698
aF0.1548527628183365
aF0.19135940074920654
aF0.18619860708713531
aF0.13883788883686066
aF0.09660654515028
aF-0.012621451169252396
aF0.009403182193636894
aF-0.20000000298023224
aF0.18651215732097626
aF0.1826399862766266
aF0.14371883869171143
aF-0.10716112703084946
aF0.012217894196510315
aF0.20000000298023224
aF-0.05106564983725548
aF-0.1732189655303955
aF0.0941794142127037
aF0.20000000298023224
aF-0.010065536946058273
aF-0.15935976803302765
aF0.14086216688156128
aF0.18938086926937103
aF0.10977321118116379
aF-0.15845713019371033
aF-0.12374580651521683
aF-0.1630188524723053
aF0.010945430025458336
aF0.08423913270235062
aF-0.05999339371919632
aF-0.11980024725198746
aF-0.08663678914308548
aF-0.17767877876758575
aF-0.15665097534656525
aF-0.15402130782604218
aF-0.10787153989076614
aF-0.19102996587753296
aF-0.12329675257205963
aF0.0592721663415432
aF0.19461242854595184
aF0.1700972616672516
aF0.15081025660037994
aF0.00490579241886735
aF0.0702262595295906
aF-0.17437945306301117
aF0.20000000298023224
aF0.17298565804958344
aF-0.20000000298023224
aF-0.16573183238506317
aF0.1886810064315796
aF-0.10743311047554016
aF-0.19102996587753296
aF-0.09683813899755478
aF0.07731667906045914
aF0.14081642031669617
aF-0.18795371055603027
aF-0.19102996587753296
aF0.06858261674642563
aF-0.19135940074920654
aF0.03902268782258034
aF0.06563245505094528
aF-0.20000000298023224
aF-0.149535670876503
aF0.1350906938314438
aF0.07815871387720108
aF-0.024384764954447746
aF0.0718911811709404
aF-0.17202550172805786
aF-0.1947997659444809
aF-0.1947997659444809
aF0.20000000298023224
aF0.03238227590918541
aF0.1720757931470871
aF0.20000000298023224
aF-0.20000000298023224
aF0.07552706450223923
aF0.013194810599088669
aF0.08928612619638443
aF0.1947997659444809
aF-0.20000000298023224
aF0.15562278032302856
aF0.19102996587753296
aF-0.10602524131536484
aF-0.08187543600797653
aF0.20000000298023224
aF0.11207497864961624
aF0.13354171812534332
aF-0.14753122627735138
aF-0.14329920709133148
aF0.06315388530492783
aF-0.20000000298023224
aF0.17650751769542694
aF-0.059211503714323044
aF-0.11726577579975128
aF0.1671784371137619
aF0.14888450503349304
aF0.08549541980028152
aF0.15190735459327698
aF0.18451225757598877
aF0.19135940074920654
aF0.09324496239423752
aF0.09610895812511444
aF-0.13081340491771698
aF0.06314164400100708
aF-0.10730854421854019
aF-0.051767561584711075
aF0.1201203390955925
aF0.048675112426280975
aF0.18864135444164276
aF0.18062949180603027
aF0.19135940074920654
aF-0.18625491857528687
aF0.015753325074911118
aF0.19102996587753296
aF-0.021241340786218643
aF-0.18934890627861023
aF0.13730016350746155
aF0.043036822229623795
aF0.1630188524723053
aF-0.1630188524723053
aF0.030047331005334854
aF0.06028116121888161
aF-0.20000000298023224
aF0.04813022539019585
aF-0.1481408029794693
aF-0.20000000298023224
aF0.03983193263411522
aF0.09955638647079468
aF-0.07076861709356308
aF-0.17812217772006989
aF-0.17232775688171387
aF-0.1205175444483757
aF-0.14886274933815002
aF-0.1526183784008026
aF0.12089961767196655
aF0.04789596423506737
aF-0.1947997659444809
aF0.1947997659444809
aF0.1481408029794693
aF0.14184534549713135
aF0.10580576211214066
aF0.16580946743488312
aF-0.010450407862663269
aF-0.18062949180603027
aF0.12496679276227951
aF0.1650293469429016
aF-0.034673064947128296
aF-0.09137158840894699
aF0.13883788883686066
aF0.10861685872077942
aF0.1638772338628769
aF-0.10021048039197922
aF0.1630188524723053
aF0.18852265179157257
aF-0.19135940074920654
aF0.19097912311553955
aF-0.0986391082406044
aF-0.11585251241922379
aF0.06374778598546982
aF0.20000000298023224
aF0.13918326795101166
aF0.18359722197055817
aF-0.08545840531587601
aF-0.12659454345703125
aF0.18884871900081635
aF-0.02519112452864647
aF0.0019556484185159206
aF0.16803696751594543
aF-0.1134624034166336
aF0.1947997659444809
aF0.0011997059918940067
aF0.1333845853805542
aF-0.052136506885290146
aF0.1947997659444809
aF-0.19102996587753296
aF-0.13048993051052094
aF0.1826399862766266
aF0.19304046034812927
aF-0.18654412031173706
aF-0.14498645067214966
aF0.20000000298023224
aF0.1947997659444809
aF0.14405082166194916
aF-0.10517806559801102
aF-0.15410368144512177
aF0.10948670655488968
aF-0.1949235051870346
aF0.19135940074920654
aF-0.02981037274003029
aF0.13604824244976044
aF0.19135940074920654
aF0.031049996614456177
aF0.19102996587753296
aF0.07196759432554245
aF-0.016083117574453354
aF0.1671784371137619
aF0.0642857775092125
aF0.17373773455619812
aF0.03984948620200157
aF0.02802329882979393
aF-0.15667173266410828
aF0.17158274352550507
aF-0.05416834354400635
aF0.054128412157297134
aF-0.20000000298023224
aF0.11423225700855255
aF0.19020728766918182
aF0.0070757572539150715
aF0.19102996587753296
aF0.19304046034812927
aF-0.13886985182762146
aF-0.20000000298023224
aF0.19102996587753296
aF0.1526183784008026
aF-0.025999151170253754
aF-0.17898039519786835
aF-0.12586970627307892
aF0.19102996587753296
aF-0.20000000298023224
aF0.20000000298023224
aF0.1090778186917305
aF0.0800231471657753
aF0.1341462880373001
aF0.20000000298023224
aF0.1630188524723053
aF0.09383103996515274
aF-0.09407304972410202
aF-0.09781865030527115
aF-0.09398175030946732
aF-0.16781990230083466
aF0.007438841741532087
aF0.1107468530535698
aF0.18062949180603027
aF-0.1128765121102333
aF0.08781533688306808
aF0.013405252248048782
aF-0.1947997659444809
aF0.12000934034585953
aF0.1947997659444809
aF-0.16367101669311523
aF0.03222972899675369
aF0.1131829246878624
aF-0.1630508154630661
aF-0.07471456378698349
aF0.19135940074920654
aF0.18092696368694305
aF0.17977485060691833
aF-0.12008944898843765
aF0.18462640047073364
aF0.18062949180603027
aF-0.17193157970905304
aF-0.016678808256983757
aF0.10545020550489426
aF0.12138626724481583
aF0.1947997659444809
aF-0.13048993051052094
aF0.03199518844485283
aF0.14963150024414062
aF0.15359699726104736
aF0.11404048651456833
aF-0.11980024725198746
aF0.19102996587753296
aF0.18095892667770386
aF0.20000000298023224
aF0.014869358390569687
aF-0.1630188524723053
aF0.20000000298023224
aF0.10184413194656372
aF-0.14132805168628693
aF0.13143037259578705
aF0.03999944403767586
aF-0.1638452708721161
aF-0.18938086926937103
aF0.05065019801259041
aF-0.014065351337194443
aF0.1947997659444809
aF0.0116666778922081
aF0.03967328369617462
aF0.1332598179578781
aF-0.10511482506990433
aF0.1826399862766266
aF0.06182605400681496
aF-0.12065014243125916
aF-0.11639493703842163
aF0.1630188524723053
aF0.15235553681850433
aF0.20000000298023224
aF0.16259880363941193
aF-0.029709596186876297
aF0.18062949180603027
aF0.12593820691108704
aF0.19102996587753296
aF0.1630188524723053
aF0.18062949180603027
aF0.1148117408156395
aF-0.15792855620384216
aF-0.07575138658285141
aF0.18095892667770386
aF0.07324031740427017
aF-0.056388285011053085
aF-0.10474652796983719
aF0.1526183784008026
aF0.20000000298023224
aF-0.18095892667770386
aF0.12368102371692657
aF0.19135940074920654
aF0.1246972605586052
aF0.18062949180603027
aF0.010702405124902725
aF-0.11987025290727615
aF-0.12702324986457825
aF-0.16727830469608307
aF0.1550658941268921
aF0.16339318454265594
aF0.04568488523364067
aF0.0005855378694832325
aF0.06167241558432579
aF0.07455006241798401
aF0.17385298013687134
aF-0.056431833654642105
aF-0.022928781807422638
aF0.19135940074920654
aF-0.16103920340538025
aF0.1649973839521408
aF0.1630188524723053
aF0.18062949180603027
aF0.17713335156440735
aF-0.006651704665273428
aF-0.18095892667770386
aF0.07619214057922363
aF0.1826399862766266
aF-0.19135940074920654
aF-0.12065789848566055
aF0.1947997659444809
aF0.11951432377099991
aF-0.1650293469429016
aF0.14315453171730042
aF0.05081157013773918
aF-0.13845005631446838
aF0.07734181731939316
aF-0.09061282128095627
aF-0.06921400874853134
aF0.06752943247556686
aF0.02130068838596344
aF0.1826399862766266
aF0.18095892667770386
aF0.1947997659444809
aF0.08558521419763565
aF0.20000000298023224
aF0.04640742391347885
aF0.20000000298023224
aF-0.035596463829278946
aF0.022901255637407303
aF0.1947997659444809
aF-0.15142953395843506
aF0.10739339143037796
aF0.1947997659444809
aF-0.11805006861686707
aF0.1947997659444809
aF-0.20000000298023224
aF0.12320704758167267
aF0.20000000298023224
aF0.19304046034812927
aF-0.20000000298023224
aF0.08992096781730652
aF-0.051572490483522415
aF-0.1947997659444809
aF-0.19304046034812927
aF-0.18062949180603027
aF-0.15189582109451294
aF0.009505346417427063
aF0.03252285718917847
aF-0.07686254382133484
aF-0.05530886724591255
aF0.035931043326854706
aF0.10338712483644485
aF0.18062949180603027
aF0.1826399862766266
aF0.18066145479679108
aF-0.1947997659444809
aF0.19135940074920654
aF0.19102996587753296
aF0.1630508154630661
aF-0.18062949180603027
aF0.000451535452157259
aF0.20000000298023224
aF-0.18336690962314606
aF-0.06397321075201035
aF0.16798250377178192
aF-0.13020072877407074
aF-0.12872189283370972
aF-0.17381489276885986
aF0.19422315061092377
aF0.10156295448541641
aF0.15222950279712677
aF-0.19304046034812927
aF-0.029619619250297546
aF-0.11480895429849625
aF0.0849948599934578
aF-0.005925530102103949
aF-0.04144813492894173
aF-0.16182798147201538
aF0.1947997659444809
aF-0.16186673939228058
aF-0.18062949180603027
aF0.0063850549049675465
aF-0.17767877876758575
aF0.1438569277524948
aF0.14950044453144073
aF-0.11093225330114365
aF-0.10138200968503952
aF-0.04082312807440758
aF0.1947997659444809
aF0.02031387761235237
aF0.10045797377824783
aF-0.14795248210430145
aF0.14505617320537567
aF0.19135940074920654
aF-0.19135940074920654
aF-0.18417872488498688
aF0.1630188524723053
aF-0.18062949180603027
aF-0.19135940074920654
aF-0.1001536175608635
aF-0.16447195410728455
aF-0.15369878709316254
aF-0.11946501582860947
aF-0.09342242777347565
aF0.1630188524723053
aF-0.1232210323214531
aF-0.20000000298023224
aF-0.06630108505487442
aF-0.1341462880373001
aF-0.14546607434749603
aF-0.1650293469429016
aF0.07469755411148071
aF0.10724186897277832
aF-0.039956461638212204
aF0.13089619576931
aF0.01551130972802639
aF-0.19202694296836853
aF-0.1193547397851944
aF0.0005271811969578266
aF0.13257232308387756
aF0.18062949180603027
aF0.06229887530207634
aF0.18062949180603027
aF-0.1184600368142128
aF0.19102996587753296
aF0.18095892667770386
aF-0.1650293469429016
aF-0.18250823020935059
aF0.13672342896461487
aF-0.15000398457050323
aF-0.17344450950622559
aF0.08737730234861374
aF-0.1671784371137619
aF-0.08341128379106522
aF-0.02806132286787033
aF0.1630188524723053
aF0.1630188524723053
aF0.05338497832417488
aF-0.18062949180603027
aF-0.09984622150659561
aF0.20000000298023224
aF0.1602913737297058
aF0.19786758720874786
aF0.1341462880373001
aF0.1633356362581253
aF0.08560533076524734
aF-0.16848869621753693
aF-0.09202846884727478
aF-0.013046298176050186
aF0.14712458848953247
aF0.06172433868050575
aF-0.17775756120681763
aF0.1114533543586731
aF0.17976805567741394
aF0.1947997659444809
aF-0.1526183784008026
aF0.18095892667770386
aF0.18095892667770386
aF-0.19304046034812927
aF-0.1947997659444809
aF0.13094380497932434
aF0.1721077561378479
aF-0.20000000298023224
aF0.20000000298023224
aF0.19135940074920654
aF0.16543595492839813
aF0.06079675629734993
aF0.12843741476535797
aF0.12008944898843765
aF-0.15416768193244934
aF-0.20000000298023224
aF-0.14359179139137268
aF-0.20000000298023224
aF-0.20000000298023224
aF-0.19304046034812927
aF-0.1947997659444809
aF-0.19693411886692047
aF0.10723482817411423
aF0.06978149712085724
aF-0.12407619506120682
aF-0.03836360201239586
aF-0.14769960939884186
aF-0.0976502075791359
aF-0.050531961023807526
aF0.13089530169963837
aF0.10932391881942749
aF0.045512061566114426
aF-0.18095892667770386
aF-0.06712213903665543
aF0.1947997659444809
aF-0.20000000298023224
aF-0.16379694640636444
aF0.1650293469429016
aF0.15854127705097198
aF-0.03131304681301117
aF-0.03745626285672188
aF-0.08978661149740219
aF0.19053243100643158
aF-0.028343822807073593
aF0.12621118128299713
aF-0.18169887363910675
aF0.002595109399408102
aF0.12843741476535797
aF-0.011538997292518616
aF-0.18062949180603027
aF-0.14753122627735138
aF-0.19102996587753296
aF-0.19102996587753296
aF-0.15084221959114075
aF-0.1650293469429016
aF-0.1947997659444809
aF-0.18095892667770386
aF-0.20000000298023224
aF-0.1947997659444809
aF0.10837087780237198
aF0.08319682627916336
aF-0.1218915730714798
aF0.07539059966802597
aF-0.10562596470117569
aF-0.18095892667770386
aF-0.09336870163679123
aF-0.07212065905332565
aF-0.1526183784008026
aF-0.07909201830625534
aF-0.01351344957947731
aF-0.12878279387950897
aF-0.1630188524723053
aF0.1947997659444809
aF0.15854127705097198
aF0.07871236652135849
aF-0.04281703755259514
aF-0.20000000298023224
aF0.18934890627861023
aF0.136928528547287
aF-0.1947997659444809
aF0.1630188524723053
aF0.19135940074920654
aF0.20000000298023224
aF0.19135940074920654
aF-0.02089788019657135
aF-0.07113956660032272
aF-0.10500597208738327
aF-0.027978871017694473
aF0.18062949180603027
aF0.1319430023431778
aF0.15165016055107117
aF0.15164978802204132
aF-0.20000000298023224
aF-0.19102996587753296
aF0.03610944747924805
aF-0.1947997659444809
aF-0.03985327482223511
aF-0.04276810213923454
aF-0.05520637333393097
aF-0.15683414041996002
aF0.1630188524723053
aF-0.15416133403778076
aF-0.20000000298023224
aF-0.07817505300045013
aF0.20000000298023224
aF0.05178043991327286
aF0.19057592749595642
aF0.1947997659444809
aF-0.14534738659858704
aF-0.011641032993793488
aF0.1489371955394745
aF-0.14184534549713135
aF-0.14184534549713135
aF-0.03038278967142105
aF0.15055741369724274
aF-0.15053294599056244
aF0.05999043211340904
aF0.19102996587753296
aF0.1947997659444809
aF0.1750849485397339
aF0.18843406438827515
aF0.20000000298023224
aF0.19102996587753296
aF0.18934890627861023
aF-0.027765877544879913
aF-0.08085618913173676
aF-0.13604824244976044
aF-0.1826399862766266
aF-0.19102996587753296
aF0.0009535015560686588
aF-0.13883788883686066
aF-0.08964985609054565
aF0.19135940074920654
aF-0.19783562421798706
aF-0.1815139502286911
aF0.04414398595690727
aF0.19102996587753296
aF0.19102996587753296
aF0.15745869278907776
aF0.19135940074920654
aF-0.19304046034812927
aF0.056518759578466415
aF0.13077759742736816
aF0.13729240000247955
aF-0.1121990904211998
aF0.07871712744235992
aF0.16812342405319214
aF-0.18062949180603027
aF-0.19135940074920654
aF-0.19135940074920654
aF-0.1671784371137619
aF-0.20000000298023224
aF-0.19135940074920654
aF-0.18108470737934113
aF-0.1704128384590149
aF-0.20000000298023224
aF-0.18049193918704987
aF-0.08999248594045639
aF-0.04041467234492302
aF-0.1826399862766266
aF0.03034418821334839
aF-0.12222935259342194
aF-0.20000000298023224
aF-0.1947997659444809
aF0.08434216678142548
aF-0.1225016862154007
aF-0.13255171477794647
aF0.12243574112653732
aF0.19102996587753296
aF0.18062949180603027
aF0.19102996587753296
aF0.17245569825172424
aF-0.19102996587753296
aF0.1947997659444809
aF0.1947997659444809
aF0.19102996587753296
aF0.19135940074920654
aF0.19135940074920654
aF0.19135940074920654
aF0.19135940074920654
aF0.1650293469429016
aF0.1650293469429016
aF0.1650293469429016
aF-0.1371101588010788
aF-0.12438312917947769
aF-0.1019379124045372
aF-0.12275324016809464
aF-0.1947997659444809
aF-0.12412741035223007
aF-0.15929943323135376
aF-0.017342668026685715
aF-0.09858780354261398
aF0.16228066384792328
aF0.0912865549325943
aF-0.1671784371137619
aF-0.19135940074920654
aF0.20000000298023224
aF-0.1630188524723053
aF0.18746471405029297
aF0.12767508625984192
aF0.16429130733013153
aF0.20000000298023224
aF0.19102996587753296
aF0.13479506969451904
aF-0.1630188524723053
aF0.07862111926078796
aF0.20000000298023224
aF-0.1484300047159195
aF-0.19135940074920654
aF-0.19135940074920654
aF-0.19135940074920654
aF-0.19135940074920654
aF-0.19135940074920654
aF-0.10721141844987869
aF0.10310433059930801
aF0.20000000298023224
aF0.19135940074920654
aF0.19135940074920654
aF0.1630188524723053
aF-0.06494621932506561
aF-0.16113705933094025
aF-0.12173531204462051
aF-0.1947997659444809
aF-0.192692369222641
aF-0.1484300047159195
aF-0.07275673002004623
aF-0.20000000298023224
aF-0.16857610642910004
aF0.058470193296670914
aF-0.15854127705097198
aF-0.11855250597000122
aF0.1760370135307312
aF-0.015824060887098312
aF0.16532908380031586
aF0.19102996587753296
aF-0.040090013295412064
aF-0.15467089414596558
aF0.20000000298023224
aF0.1658059060573578
aF-0.11125607788562775
aF0.20000000298023224
aF-0.14625070989131927
aF0.1630188524723053
aF-0.061391573399305344
aF-0.05189323052763939
aF0.1526183784008026
aF0.12079452723264694
aF-0.13883788883686066
aF0.1526183784008026
aF0.1371307522058487
aF0.04948918893933296
aF-0.1356603354215622
aF0.04565651714801788
aF-0.04714727774262428
aF-0.18062949180603027
aF-0.10832959413528442
aF0.11926787346601486
aF-0.10709716379642487
aF-0.20000000298023224
aF-0.18062949180603027
aF0.15277694165706635
aF-0.15854127705097198
aF0.07407157868146896
aF0.17718912661075592
aF0.06417150795459747
aF-0.12241118401288986
aF-0.03463967144489288
aF0.15173599123954773
aF0.06176618114113808
aF0.09767777472734451
aF0.12008944898843765
aF-0.0952773168683052
aF0.19135940074920654
aF0.19135940074920654
aF0.19135940074920654
aF0.19135940074920654
aF0.20000000298023224
aF0.1630508154630661
aF0.1630508154630661
aF0.18062949180603027
aF0.14753122627735138
aF0.1635819524526596
aF-0.02262727916240692
aF-0.13246846199035645
aF0.03945067897439003
aF-0.18934890627861023
aF-0.12759432196617126
aF0.10883063822984695
aF0.1947997659444809
aF0.18022073805332184
aF-0.19135940074920654
aF-0.06859126687049866
aF0.09172514826059341
aF-0.16186673939228058
aF0.12627147138118744
aF0.14437100291252136
aF-0.008381936699151993
aF0.045456916093826294
aF-0.090207539498806
aF0.11088430881500244
aF0.1278412938117981
aF0.13603293895721436
aF-0.1333594024181366
aF0.13918326795101166
aF0.02109736204147339
aF0.19135940074920654
aF-0.1947997659444809
aF-0.15562452375888824
aF-6.881775334477425e-05
aF-0.1947997659444809
aF0.020753365010023117
aF0.1630188524723053
aF0.033840347081422806
aF-0.18085238337516785
aF-0.1725604385137558
aF-0.1947997659444809
aF-0.19135940074920654
aF-0.1947997659444809
aF-0.20000000298023224
aF-0.1947997659444809
aF-0.09948613494634628
aF-0.1947997659444809
aF0.1518801897764206
aF-0.13874343037605286
aF0.1947997659444809
aF-0.15854127705097198
aF0.18478907644748688
aF-0.11766571551561356
aF-0.1947997659444809
aF-0.1947997659444809
aF-0.14209039509296417
aF-0.08116015791893005
aF-0.11149775236845016
aF0.005896436516195536
aF-0.1798682063817978
aF0.0652812197804451
aF-0.16812342405319214
aF0.1947997659444809
aF-0.07409573346376419
aF0.13355593383312225
aF0.1349574625492096
aF-0.11291971802711487
aF0.030472751706838608
aF-0.02442246302962303
aF0.09094440191984177
aF-0.12243057787418365
aF-0.025760795921087265
aF0.18607690930366516
aF0.1630188524723053
aF0.20000000298023224
aF0.19135940074920654
aF0.000765844713896513
aF-0.16911664605140686
aF-0.1947997659444809
aF-0.15224434435367584
aF-0.025025624781847
aF-0.20000000298023224
aF0.17560409009456635
aF-0.04970749095082283
aF0.1605115383863449
aF-0.1650293469429016
aF-0.06095373257994652
aF-0.06896641850471497
aF-0.06963827461004257
aF-0.07968855649232864
aF0.16923150420188904
aF0.012617724016308784
aF0.1650293469429016
aF0.18238097429275513
aF0.09945730119943619
aF-0.10988766700029373
aF-0.162946417927742
aF0.19135940074920654
aF0.06948187947273254
aF0.1630188524723053
aF-0.11105949431657791
aF-0.10417754203081131
aF-0.18062949180603027
aF-0.1947997659444809
aF-0.05932735279202461
aF-0.1772197037935257
aF-0.1947997659444809
aF-0.18062949180603027
aF-0.20000000298023224
aF-0.03677115589380264
aF0.18746711313724518
aF0.07267633080482483
aF-0.048159025609493256
aF-0.19102996587753296
aF0.1947997659444809
aF-0.0027909488417208195
aF0.04400235414505005
aF0.055635057389736176
aF0.1663319170475006
aF-0.006234938744455576
aF0.12088514864444733
aF0.07363686710596085
aF0.12220633774995804
aF0.17877759039402008
aF-0.022527553141117096
aF0.20000000298023224
aF-0.11484483629465103
aF-0.12207446247339249
aF0.1165008470416069
aF0.14044174551963806
aF0.15000586211681366
aF0.16217026114463806
aF0.021276522427797318
aF-0.1947997659444809
aF0.08048472553491592
aF-0.17057695984840393
aF-0.17878542840480804
aF-0.1947997659444809
aF-0.19786758720874786
aF0.09046385437250137
aF-0.18355239927768707
aF-0.1826399862766266
aF0.0210953950881958
aF-0.1778329759836197
aF-0.19102996587753296
aF-0.20000000298023224
aF0.19106192886829376
aF-0.15101732313632965
aF0.20000000298023224
aF0.19135940074920654
aF0.1800103634595871
aF0.1876610666513443
aF0.12147920578718185
aF-0.07689989358186722
aF-0.03940665349364281
aF0.15136782824993134
aF-0.17408597469329834
aF0.06369524449110031
aF-0.18022073805332184
aF0.1878456473350525
aF0.16587017476558685
aF0.0797252506017685
aF0.05159635469317436
aF-0.1826399862766266
aF0.16459649801254272
aF-0.18250823020935059
aF-0.19135940074920654
aF-0.11302219331264496
aF-0.15883047878742218
aF-0.20000000298023224
aF0.05642421171069145
aF0.20000000298023224
aF0.06507248431444168
aF0.014625519514083862
aF0.09802962094545364
aF-0.1609359234571457
aF0.18891407549381256
aF0.20000000298023224
aF0.20000000298023224
aF-0.07213500887155533
aF0.16019180417060852
aF0.07119812071323395
aF0.056108858436346054
aF0.13209080696105957
aF-0.1265937089920044
aF0.035909947007894516
aF0.14160312712192535
aF-0.048248566687107086
aF-0.1947997659444809
aF0.1115458533167839
aF-0.11129257827997208
aF0.18095892667770386
aF0.1947997659444809
aF0.032129816710948944
aF0.1221315860748291
aF-0.02779153361916542
aF-0.1280488520860672
aF-0.17538268864154816
aF-0.18095892667770386
aF-0.18062949180603027
aF-0.1947997659444809
aF-0.09844319522380829
aF-0.15677796304225922
aF-0.17582248151302338
aF-0.19102996587753296
aF-0.20000000298023224
aF0.11998347193002701
aF0.1947997659444809
aF0.01536744087934494
aF-0.1484300047159195
aF-0.1947997659444809
aF0.135128915309906
aF0.10215909034013748
aF0.08413568884134293
aF0.0520598329603672
aF-0.02953134849667549
aF-0.12843741476535797
aF0.1947997659444809
aF0.10246019810438156
aF-0.16577351093292236
aF-0.20000000298023224
aF0.10561640560626984
aF0.1547674685716629
aF-0.20000000298023224
aF-0.20000000298023224
aF-0.20000000298023224
aF-0.1407010853290558
aF0.12744911015033722
aF-0.1630188524723053
aF-0.1649973839521408
aF-0.1630188524723053
aF-0.19102996587753296
aF-0.19135940074920654
aF-0.19135940074920654
aF-0.13020072877407074
aF-0.151310533285141
aF-0.05407341197133064
aF0.16015200316905975
aF0.20000000298023224
aF0.20000000298023224
aF-0.10340499132871628
aF-0.15677796304225922
aF-0.20000000298023224
aF-0.1826399862766266
aF-0.021931130439043045
aF0.18096604943275452
aF-0.07345806807279587
aF-0.08501511812210083
aF-0.19102996587753296
aF0.013975419104099274
aF-0.19304046034812927
aF-0.20000000298023224
aF-0.003354353364557028
aF0.20000000298023224
aF-0.05794789642095566
aF-0.20000000298023224
aF-0.03445269167423248
aF0.056431517004966736
aF-0.19304046034812927
aF-0.19106192886829376
aF-0.19102996587753296
aF-0.14299379289150238
aF0.0030169966630637646
aF0.19135940074920654
aF-0.19135940074920654
aF-0.19135940074920654
aF0.0521191842854023
aF0.11980024725198746
aF0.1596185714006424
aF0.1947997659444809
aF0.12308623641729355
aF0.20000000298023224
aF0.19135940074920654
aF0.19102996587753296
aF0.13883788883686066
aF-0.16374363005161285
aF-0.01664973422884941
aF-0.12843741476535797
aF-0.12843741476535797
aF-0.04311560466885567
aF0.18095892667770386
aF0.16244226694107056
aF-0.19304046034812927
aF0.04370013624429703
aF0.1947997659444809
aF0.11761553585529327
aF-0.20000000298023224
aF0.11842222511768341
aF0.20000000298023224
aF-0.012974459677934647
aF-0.20000000298023224
aF-0.17402416467666626
aF0.19132743775844574
aF-0.012497488409280777
aF-0.19135940074920654
aF-0.1341462880373001
aF-0.1630188524723053
aF-0.11210119724273682
aF0.08180511742830276
aF-0.1460804045200348
aF-0.12229488790035248
aF-0.042272306978702545
aF-0.15172679722309113
aF-0.20000000298023224
aF-0.0756661519408226
aF-0.19102996587753296
aF-0.19102996587753296
aF-0.19102996587753296
aF0.007933778688311577
aF-0.06090634688735008
aF0.1881967931985855
aF0.047473177313804626
aF-0.1849329024553299
aF0.15528611838817596
aF-0.13869063556194305
aF0.18823345005512238
aF0.16798554360866547
aF-0.19135940074920654
aF-0.1947997659444809
aF0.17597435414791107
aF-0.021438632160425186
aF-0.19102996587753296
aF-0.20000000298023224
aF-0.009020261466503143
aF0.13883788883686066
aF-0.19304046034812927
aF-0.19102996587753296
aF-0.18630069494247437
aF-0.19135940074920654
aF-0.12674428522586823
aF0.06918471306562424
aF-0.20000000298023224
aF-0.10267508774995804
aF0.19063684344291687
aF0.1547546535730362
aF-0.11676158756017685
aF-0.18178284168243408
aF-0.11507982015609741
aF-0.20000000298023224
aF-0.1947997659444809
aF0.20000000298023224
aF-0.0011592586524784565
aF0.17257606983184814
aF-0.061895135790109634
aF-0.20000000298023224
aF0.03796626627445221
aF0.12837405502796173
aF-0.18250823020935059
aF0.09334640949964523
aF-0.14184534549713135
aF-0.15528611838817596
aF0.1842106431722641
aF-0.034954734146595
aF0.0063713849522173405
aF0.18934890627861023
aF-0.17498715221881866
aF0.13891780376434326
aF-0.19102996587753296
aF-0.1173224002122879
aF0.13200581073760986
aF-0.20000000298023224
aF0.04062201827764511
aF0.08631337434053421
aF-0.1491740494966507
aF0.1671784371137619
aF0.11581965535879135
aF0.19102996587753296
aF0.12343338131904602
aF0.1448983997106552
aF0.1671784371137619
aF0.06709549576044083
aF0.08566752821207047
aF-0.09456584602594376
aF-0.10812173783779144
aF-0.0720016285777092
aF-0.007452955935150385
aF0.1947997659444809
aF0.15868644416332245
aF0.18263639509677887
aF0.17331945896148682
aF0.15074020624160767
aF-0.1481408029794693
aF-0.02879786118865013
aF0.19102996587753296
aF-0.02724110335111618
aF-0.18934890627861023
aF0.049193885177373886
aF-0.1658479869365692
aF0.1651679426431656
aF-0.19102996587753296
aF-0.0792304202914238
aF-0.10147682577371597
aF-0.20000000298023224
aF-0.1947997659444809
aF-0.1481408029794693
aF-0.20000000298023224
aF-0.06841743737459183
aF0.11335883289575577
aF-0.03995873034000397
aF-0.128341406583786
aF-0.19102996587753296
aF-0.18095892667770386
aF-0.14886274933815002
aF-0.14634747803211212
aF0.15963423252105713
aF-0.20000000298023224
aF-0.018092453479766846
aF0.19300849735736847
aF0.1947997659444809
aF0.20000000298023224
aF0.19102996587753296
aF0.13617299497127533
aF-0.14111238718032837
aF-0.1526183784008026
aF0.036224156618118286
aF0.19102996587753296
aF-0.14365682005882263
aF-0.18102487921714783
aF0.11662058532238007
aF-0.033562589436769485
aF0.19020728766918182
aF-0.12448932230472565
aF0.053769759833812714
aF-0.01466337963938713
aF-0.20000000298023224
aF-0.09421622008085251
aF-0.1630188524723053
aF-0.01299808919429779
aF-0.06853806972503662
aF0.06317830830812454
aF0.1484300047159195
aF0.1947997659444809
aF0.034066423773765564
aF-0.1947997659444809
aF0.134613499045372
aF0.05546335503458977
aF0.17426757514476776
aF-0.20000000298023224
aF-0.056641366332769394
aF0.20000000298023224
aF0.18062949180603027
aF0.19106192886829376
aF0.19102996587753296
aF0.1947997659444809
aF-0.15416768193244934
aF-0.13048993051052094
aF-0.13872718811035156
aF0.19102996587753296
aF-0.1826399862766266
aF-0.19304046034812927
aF0.18934890627861023
aF-0.17897658050060272
aF-0.13309669494628906
aF-0.19304046034812927
aF-0.20000000298023224
aF-0.11732254177331924
aF-0.20000000298023224
aF-0.12772181630134583
aF-0.15506622195243835
aF0.036490511149168015
aF-0.011518307030200958
aF0.04726948216557503
aF0.19102996587753296
aF0.10382813960313797
aF-0.06267071515321732
aF-0.11124163866043091
aF0.19016852974891663
aF0.1446501463651657
aF0.10476384311914444
aF-0.18062949180603027
aF0.20000000298023224
aF0.15114352107048035
aF0.1947997659444809
aF0.20000000298023224
aF-0.20000000298023224
aF0.015222044661641121
aF0.18062949180603027
aF-0.011390939354896545
aF0.18337713181972504
aF0.020917829126119614
aF-0.18625491857528687
aF-0.1808813363313675
aF0.14681580662727356
aF-0.1192169338464737
aF-0.10428214818239212
aF-0.19102996587753296
aF-0.16390658915042877
aF-0.15384332835674286
aF-0.20000000298023224
aF0.10239265114068985
aF-0.18535949289798737
aF0.06610285490751266
aF0.09540527313947678
aF0.17294631898403168
aF0.13048993051052094
aF0.04992876946926117
aF-0.18934890627861023
aF-0.10591054707765579
aF-0.1043822392821312
aF-0.18023087084293365
aF-0.041562166064977646
aF0.00790066085755825
aF0.18022073805332184
aF0.10105527192354202
aF0.1856587529182434
aF0.17802414298057556
aF-0.1329045593738556
aF-0.18934890627861023
aF0.17338977754116058
aF-0.08762650936841965
aF-0.10374090820550919
aF0.05303943529725075
aF-0.1630508154630661
aF-0.059922050684690475
aF0.1569952517747879
aF0.18095892667770386
aF0.10536983609199524
aF-0.18062949180603027
aF-0.1099279597401619
aF-0.02561676874756813
aF-0.19135940074920654
aF-0.19102996587753296
aF-0.19102996587753296
aF0.009431730955839157
aF0.18062949180603027
aF-0.1630188524723053
aF-0.20000000298023224
aF-0.0023461258970201015
aF-0.13320288062095642
aF0.0381624698638916
aF-0.13851246237754822
aF0.19102996587753296
aF0.19102996587753296
aF-0.11234880238771439
aF0.14633068442344666
aF-0.1526183784008026
aF0.17727184295654297
aF0.19189481437206268
aF-0.07875194400548935
aF0.19304046034812927
aF0.13686807453632355
aF-0.16186673939228058
aF-0.12525416910648346
aF-0.028550971299409866
aF-0.17821985483169556
aF0.18934890627861023
aF-0.12843741476535797
aF-0.14175273478031158
aF0.017244454473257065
aF-0.12843315303325653
aF-0.11342636495828629
aF-0.1947997659444809
aF-0.1630188524723053
aF-0.18095892667770386
aF-0.09122099727392197
aF-0.07298807799816132
aF0.1947997659444809
aF0.14788877964019775
aF-0.02109544724225998
aF0.1649973839521408
aF-0.14776544272899628
aF-0.14287085831165314
aF0.04049353301525116
aF0.14499609172344208
aF0.12678049504756927
aF-0.1331893503665924
aF0.09843664616346359
aF-0.14716896414756775
aF0.10174525529146194
aF-0.06847544759511948
aF-0.05241924151778221
aF0.1630188524723053
aF0.13986681401729584
aF-0.1826399862766266
aF0.10038549453020096
aF0.14622360467910767
aF-0.029886163771152496
aF0.008027773350477219
aF-0.1484300047159195
aF-0.1947997659444809
aF-0.08950074762105942
aF-0.1947997659444809
aF-0.1629144549369812
aF-0.11130786687135696
aF0.0013227635063230991
aF-0.1650293469429016
aF-0.1546846181154251
aF-0.1630188524723053
aF0.01834673061966896
aF0.13766410946846008
aF-0.1947997659444809
aF0.19135940074920654
aF-0.1526183784008026
aF0.19089241325855255
aF0.11434029787778854
aF0.03490351885557175
aF0.010709777474403381
aF0.049027614295482635
aF0.015743812546133995
aF-0.07175444811582565
aF0.20000000298023224
aF-0.18095892667770386
aF-0.010737691074609756
aF0.20000000298023224
aF0.20000000298023224
aF-0.18062949180603027
aF0.15416768193244934
aF0.19020728766918182
aF0.019156433641910553
aF0.045586664229631424
aF-0.1924525797367096
aF-0.08895376324653625
aF0.15514850616455078
aF-0.06672491878271103
aF0.18066145479679108
aF0.15459690988063812
aF0.20000000298023224
aF-0.1947997659444809
aF-0.07366987317800522
aF0.007563948165625334
aF0.19102996587753296
aF-0.11190321296453476
aF0.18062949180603027
aF0.1947997659444809
aF-0.05951595678925514
aF0.13954082131385803
aF0.20000000298023224
aF-0.09102597087621689
aF0.18062949180603027
aF-0.20000000298023224
aF0.08270899951457977
aF0.186322420835495
aF0.19304046034812927
aF-0.17396222054958344
aF0.06326626241207123
aF0.20000000298023224
aF-0.001055226195603609
aF-0.1767362803220749
aF-0.03594591096043587
aF-0.12936343252658844
aF0.1947997659444809
aF0.1947997659444809
aF-0.056669387966394424
aF-0.10477758198976517
aF-0.10875123739242554
aF0.1331491768360138
aF-0.1671784371137619
aF0.1526183784008026
aF0.13946598768234253
aF-0.1947997659444809
aF0.05177642032504082
aF0.1291150450706482
aF0.149236798286438
aF-0.18062949180603027
aF-0.009037910029292107
aF0.20000000298023224
aF-0.06637383252382278
aF0.18934890627861023
aF0.11276771873235703
aF-0.15518996119499207
aF-0.12872189283370972
aF0.0039052912034094334
aF0.11619909107685089
aF-0.012074518948793411
aF0.1744690239429474
aF-0.19304046034812927
aF0.17597606778144836
aF0.17963118851184845
aF0.20000000298023224
aF0.20000000298023224
aF-0.13918326795101166
aF-0.1627773940563202
aF0.15899011492729187
aF-0.02633003517985344
aF-0.18062949180603027
aF-0.07838313281536102
aF-0.20000000298023224
aF-0.13044790923595428
aF0.09078460186719894
aF-0.06040145829319954
aF-0.09634368866682053
aF-0.1477368324995041
aF0.1947997659444809
aF0.08403893560171127
aF0.1481408029794693
aF-0.1526183784008026
aF0.20000000298023224
aF0.19135940074920654
aF-0.16471804678440094
aF0.1367539018392563
aF0.1630188524723053
aF-0.1275567263364792
aF-0.19135940074920654
aF-0.17756202816963196
aF-0.11629729717969894
aF-0.18095892667770386
aF0.02801312506198883
aF-0.20000000298023224
aF0.19135940074920654
aF0.09310121089220047
aF0.08992300182580948
aF-0.12192869186401367
aF-0.13048993051052094
aF-0.03131670504808426
aF-0.10783950239419937
aF-0.052970096468925476
aF0.12615364789962769
aF-0.09756741672754288
aF0.11110375821590424
aF-0.08732432872056961
aF-0.10969475656747818
aF-0.1826399862766266
aF0.03908908739686012
aF0.19102996587753296
aF0.15615878999233246
aF0.07606339454650879
aF0.1325894147157669
aF0.033223412930965424
aF0.19102996587753296
aF0.19135940074920654
aF-0.1630188524723053
aF-0.0356551893055439
aF0.15068289637565613
aF0.08287123590707779
aF-0.1250825673341751
aF0.15265034139156342
aF0.14884020388126373
aF-0.18095892667770386
aF0.20000000298023224
aF0.20000000298023224
aF0.1630188524723053
aF-0.1726928949356079
aF-0.19102996587753296
aF-0.1417320966720581
aF-0.13700376451015472
aF0.1947997659444809
aF-0.05716782435774803
aF0.1947997659444809
aF0.006643834989517927
aF-0.1767043173313141
aF-0.13734348118305206
aF-0.118172787129879
aF-0.18055996298789978
aF0.13042865693569183
aF0.05974580720067024
aF0.12469932436943054
aF0.06668054312467575
aF0.17976805567741394
aF0.1947997659444809
aF-0.18062949180603027
aF0.1085243746638298
aF0.18095892667770386
aF-0.19304046034812927
aF-0.15047623217105865
aF-0.107510507106781
aF0.1651538759469986
aF-0.20000000298023224
aF0.19135940074920654
aF0.20000000298023224
aF0.17853286862373352
aF0.19102996587753296
aF0.07389313727617264
aF-0.19240166246891022
aF-0.14585594832897186
aF-0.19102996587753296
aF-0.20000000298023224
aF-0.20000000298023224
aF-0.19135940074920654
aF-0.1495417207479477
aF-0.15849630534648895
aF0.08341974765062332
aF0.11243642121553421
aF-0.027670886367559433
aF-0.0544796846807003
aF-0.03033565916121006
aF-0.07915051281452179
aF-0.1587231159210205
aF-0.0722406730055809
aF0.18062949180603027
aF0.18062949180603027
aF0.09470720589160919
aF-0.13031935691833496
aF0.1261923909187317
aF0.1826399862766266
aF-0.20000000298023224
aF-0.0212644524872303
aF0.19102996587753296
aF0.1671784371137619
aF0.1630188524723053
aF-0.15831762552261353
aF-0.08274038881063461
aF-0.00866617076098919
aF0.14523987472057343
aF-0.13243915140628815
aF-0.16182798147201538
aF-0.15617817640304565
aF0.12843741476535797
aF0.004725875798612833
aF-0.11919170618057251
aF-0.09824653714895248
aF-0.1392194926738739
aF-0.19102996587753296
aF-0.15084221959114075
aF-0.19135940074920654
aF-0.1947997659444809
aF-0.15849506855010986
aF-0.20000000298023224
aF-0.14136382937431335
aF0.10837087780237198
aF-0.06714875996112823
aF-0.20000000298023224
aF0.10626542568206787
aF0.009287428110837936
aF-0.11664829403162003
aF0.1548006385564804
aF0.19135940074920654
aF-0.18062949180603027
aF0.13722170889377594
aF-0.06790900230407715
aF-0.16781990230083466
aF-0.19102996587753296
aF0.14455671608448029
aF0.026444364339113235
aF-0.153988316655159
aF-0.008539628237485886
aF-0.1406923532485962
aF-0.042371947318315506
aF-0.06966768205165863
aF-0.15275102853775024
aF0.18095892667770386
aF0.11284991353750229
aF0.1947997659444809
aF0.18874500691890717
aF0.11988240480422974
aF0.19102996587753296
aF-0.07806570082902908
aF0.10169077664613724
aF0.18062949180603027
aF0.1526183784008026
aF0.04538087174296379
aF0.06213907524943352
aF-0.20000000298023224
aF-0.11065472662448883
aF-0.14795823395252228
aF0.03663592413067818
aF-0.09541250020265579
aF0.1947997659444809
aF0.028702635318040848
aF0.13615988194942474
aF0.14533302187919617
aF-0.05427065119147301
aF-0.006418176461011171
aF0.1947997659444809
aF0.18062949180603027
aF-0.12676657736301422
aF0.06882022321224213
aF0.1947997659444809
aF-0.19135940074920654
aF0.0021816459484398365
aF0.07574804872274399
aF-0.15854127705097198
aF-0.15854127705097198
aF-0.1630188524723053
aF0.10831176489591599
aF0.0904427096247673
aF-0.08476413041353226
aF0.16484197974205017
aF0.20000000298023224
aF0.16186673939228058
aF0.20000000298023224
aF0.13548600673675537
aF0.1630188524723053
aF-0.12274210155010223
aF-0.18625935912132263
aF-0.1498640924692154
aF-0.1630188524723053
aF-0.09955976158380508
aF-0.10580576211214066
aF0.1947997659444809
aF0.031940069049596786
aF0.1526183784008026
aF0.10117147117853165
aF-0.08051209896802902
aF-0.044815417379140854
aF0.03409106284379959
aF0.18062949180603027
aF-0.20000000298023224
aF-0.055891890078783035
aF0.10657821595668793
aF-0.1947997659444809
aF-0.18062949180603027
aF0.013334985822439194
aF0.019024662673473358
aF-0.15084221959114075
aF-0.1630188524723053
aF-0.05927326902747154
aF-0.1630188524723053
aF-0.19135940074920654
aF-0.19135940074920654
aF-0.17587177455425262
aF-0.20000000298023224
aF-0.19135940074920654
aF-0.18108470737934113
aF-0.19135940074920654
aF-0.20000000298023224
aF-0.19102996587753296
aF0.1947997659444809
aF0.026273850351572037
aF0.17183446884155273
aF0.17894843220710754
aF0.20000000298023224
aF-0.10437511652708054
aF0.1630188524723053
aF0.1054014042019844
aF-0.14044174551963806
aF-0.09754494577646255
aF0.14044174551963806
aF-0.19102996587753296
aF0.18062949180603027
aF0.1897919774055481
aF-0.1538906842470169
aF-0.19102996587753296
aF0.16147153079509735
aF-0.009030815213918686
aF0.18651215732097626
aF0.1651679426431656
aF0.09421563893556595
aF0.19135940074920654
aF0.19135940074920654
aF0.20000000298023224
aF0.20000000298023224
aF0.1650293469429016
aF-0.1940179318189621
aF-0.15873530507087708
aF-0.1826399862766266
aF-0.15265034139156342
aF-0.1947997659444809
aF-0.15954650938510895
aF-0.15796473622322083
aF-0.04536169394850731
aF0.0038856244646012783
aF0.19102996587753296
aF0.07038148492574692
aF-0.1993652880191803
aF0.12843741476535797
aF0.20000000298023224
aF0.13516706228256226
aF0.11855250597000122
aF0.08193166553974152
aF-0.18062949180603027
aF-0.11337107419967651
aF0.18062949180603027
aF0.20000000298023224
aF-0.1630188524723053
aF-0.1134379506111145
aF-0.12880606949329376
aF-0.19135940074920654
aF-0.19135940074920654
aF-0.19135940074920654
aF-0.19135940074920654
aF-0.19135940074920654
aF-0.19135940074920654
aF-0.15958066284656525
aF0.1630188524723053
aF0.04586600139737129
aF0.14662764966487885
aF0.12158149480819702
aF-0.1499374359846115
aF0.0924278274178505
aF-0.15998965501785278
aF-0.19102996587753296
aF-0.20000000298023224
aF-0.1587221324443817
aF-0.17976805567741394
aF0.19135940074920654
aF-0.20000000298023224
aF0.06979825347661972
aF0.15111863613128662
aF-0.06084555760025978
aF0.08688545227050781
aF0.1760370135307312
aF-0.11817795038223267
aF-0.13021375238895416
aF0.16602632403373718
aF-0.008485972881317139
aF-0.12260201573371887
aF0.18062949180603027
aF0.13048993051052094
aF0.19102996587753296
aF0.19135940074920654
aF0.1630188524723053
aF0.1630188524723053
aF0.1630188524723053
aF0.045871224254369736
aF0.1526183784008026
aF0.1630188524723053
aF-0.14084838330745697
aF0.1630188524723053
aF-0.04531339183449745
aF-0.1947997659444809
aF-0.1947997659444809
aF-0.19304046034812927
aF-0.030916128307580948
aF-0.018535254523158073
aF0.1947997659444809
aF0.19102996587753296
aF0.13843125104904175
aF-0.20000000298023224
aF-0.1655733585357666
aF0.1360810101032257
aF-0.13020072877407074
aF0.17718912661075592
aF0.1760370135307312
aF0.02797025442123413
aF-0.18239280581474304
aF0.049151696264743805
aF0.1947997659444809
aF0.030155230313539505
aF0.156102254986763
aF0.12008944898843765
aF0.13883788883686066
aF0.19135940074920654
aF0.19135940074920654
aF0.19135940074920654
aF0.19135940074920654
aF0.1630188524723053
aF0.1650293469429016
aF0.1630188524723053
aF0.10821535438299179
aF-0.03737785667181015
aF0.19135940074920654
aF-0.1947997659444809
aF-0.1947997659444809
aF-0.14521583914756775
aF-0.20000000298023224
aF0.004558785352855921
aF0.1947997659444809
aF0.1484300047159195
aF0.07904527336359024
aF-0.20000000298023224
aF0.018414244055747986
aF0.10692416876554489
aF0.011383578181266785
aF-0.09638403356075287
aF0.1760370135307312
atp3
Rp4
I0
(L1L
L3L
L32L
L32L
tp5
(L3072L
L1024L
L32L
L1L
tp6
tp7
Rp8
.